target datalayout = "e-m:e-p270:32:32-p271:32:32-p272:64:64-i64:64-i128:128-f80:128-n8:16:32:64-S128"
target triple = "x86_64-pc-linux-gnu"

%struct.redisReply = type { i32, i64, double, i64, ptr, [4 x i8], i64, ptr }
%struct.hisdshdr8 = type { i8, i8, i8, [0 x i8] }
%struct.hisdshdr16 = type <{ i16, i16, i8, [0 x i8] }>
%struct.hisdshdr32 = type <{ i32, i32, i8, [0 x i8] }>
%struct.hisdshdr64 = type <{ i64, i64, i8, [0 x i8] }>

@stderr = external global ptr, align 8
@.str.157 = private unnamed_addr constant [5 x i8] c"%lld\00", align 1
@.str.225 = private unnamed_addr constant [2 x i8] c",\00", align 1
@.str.242 = private unnamed_addr constant [3 x i8] c"%s\00", align 1
@.str.431 = private unnamed_addr constant [24 x i8] c"Unknown reply type: %d\0A\00", align 1
@.str.620 = private unnamed_addr constant [7 x i8] c"ERROR,\00", align 1
@.str.621 = private unnamed_addr constant [5 x i8] c"NULL\00", align 1
@.str.622 = private unnamed_addr constant [5 x i8] c"true\00", align 1
@.str.623 = private unnamed_addr constant [6 x i8] c"false\00", align 1

; Function Attrs: inlinehint nounwind uwtable
define internal i64 @hi_sdslen(ptr noundef %0) #12 {
  %2 = alloca i64, align 8
  %3 = alloca ptr, align 8
  %4 = alloca i8, align 1
  %5 = alloca i32, align 4
  store ptr %0, ptr %3, align 8, !tbaa !5
  call void @llvm.lifetime.start.p0(i64 1, ptr %4) #15
  %6 = load ptr, ptr %3, align 8, !tbaa !5
  %7 = getelementptr inbounds i8, ptr %6, i64 -1
  %8 = load i8, ptr %7, align 1, !tbaa !79
  store i8 %8, ptr %4, align 1, !tbaa !79
  %9 = load i8, ptr %4, align 1, !tbaa !79
  %10 = zext i8 %9 to i32
  %11 = and i32 %10, 7
  switch i32 %11, label %40 [
    i32 0, label %12
    i32 1, label %17
    i32 2, label %23
    i32 3, label %29
    i32 4, label %35
  ]

12:                                               ; preds = %1
  %13 = load i8, ptr %4, align 1, !tbaa !79
  %14 = zext i8 %13 to i32
  %15 = ashr i32 %14, 3
  %16 = sext i32 %15 to i64
  store i64 %16, ptr %2, align 8
  store i32 1, ptr %5, align 4
  br label %41

17:                                               ; preds = %1
  %18 = load ptr, ptr %3, align 8, !tbaa !5
  %19 = getelementptr inbounds i8, ptr %18, i64 -3
  %20 = getelementptr inbounds nuw %struct.hisdshdr8, ptr %19, i32 0, i32 0
  %21 = load i8, ptr %20, align 1, !tbaa !79
  %22 = zext i8 %21 to i64
  store i64 %22, ptr %2, align 8
  store i32 1, ptr %5, align 4
  br label %41

23:                                               ; preds = %1
  %24 = load ptr, ptr %3, align 8, !tbaa !5
  %25 = getelementptr inbounds i8, ptr %24, i64 -5
  %26 = getelementptr inbounds nuw %struct.hisdshdr16, ptr %25, i32 0, i32 0
  %27 = load i16, ptr %26, align 1, !tbaa !80
  %28 = zext i16 %27 to i64
  store i64 %28, ptr %2, align 8
  store i32 1, ptr %5, align 4
  br label %41

29:                                               ; preds = %1
  %30 = load ptr, ptr %3, align 8, !tbaa !5
  %31 = getelementptr inbounds i8, ptr %30, i64 -9
  %32 = getelementptr inbounds nuw %struct.hisdshdr32, ptr %31, i32 0, i32 0
  %33 = load i32, ptr %32, align 1, !tbaa !10
  %34 = zext i32 %33 to i64
  store i64 %34, ptr %2, align 8
  store i32 1, ptr %5, align 4
  br label %41

35:                                               ; preds = %1
  %36 = load ptr, ptr %3, align 8, !tbaa !5
  %37 = getelementptr inbounds i8, ptr %36, i64 -17
  %38 = getelementptr inbounds nuw %struct.hisdshdr64, ptr %37, i32 0, i32 0
  %39 = load i64, ptr %38, align 1, !tbaa !27
  store i64 %39, ptr %2, align 8
  store i32 1, ptr %5, align 4
  br label %41

40:                                               ; preds = %1
  store i64 0, ptr %2, align 8
  store i32 1, ptr %5, align 4
  br label %41

41:                                               ; preds = %40, %35, %29, %23, %17, %12
  call void @llvm.lifetime.end.p0(i64 1, ptr %4) #15
  %42 = load i64, ptr %2, align 8
  ret i64 %42
}

; Function Attrs: nounwind uwtable
define internal ptr @cliFormatReplyCSV(ptr noundef %0) #0 {
  %2 = alloca ptr, align 8
  %3 = alloca i32, align 4
  %4 = alloca ptr, align 8
  %5 = alloca ptr, align 8
  store ptr %0, ptr %2, align 8, !tbaa !46
  call void @llvm.lifetime.start.p0(i64 4, ptr %3) #15
  call void @llvm.lifetime.start.p0(i64 8, ptr %4) #15
  %6 = call ptr @hi_sdsempty()
  store ptr %6, ptr %4, align 8, !tbaa !5
  %7 = load ptr, ptr %2, align 8, !tbaa !46
  %8 = getelementptr inbounds nuw %struct.redisReply, ptr %7, i32 0, i32 0
  %9 = load i32, ptr %8, align 8, !tbaa !68
  switch i32 %9, label %101 [
    i32 6, label %10
    i32 5, label %22
    i32 3, label %31
    i32 7, label %37
    i32 1, label %43
    i32 14, label %43
    i32 4, label %52
    i32 8, label %55
    i32 2, label %63
    i32 10, label %63
    i32 12, label %63
    i32 9, label %63
  ]

10:                                               ; preds = %1
  %11 = load ptr, ptr %4, align 8, !tbaa !5
  %12 = call ptr @hi_sdscat(ptr noundef %11, ptr noundef @.str.620)
  store ptr %12, ptr %4, align 8, !tbaa !5
  %13 = load ptr, ptr %4, align 8, !tbaa !5
  %14 = load ptr, ptr %2, align 8, !tbaa !46
  %15 = getelementptr inbounds nuw %struct.redisReply, ptr %14, i32 0, i32 4
  %16 = load ptr, ptr %15, align 8, !tbaa !54
  %17 = load ptr, ptr %2, align 8, !tbaa !46
  %18 = getelementptr inbounds nuw %struct.redisReply, ptr %17, i32 0, i32 4
  %19 = load ptr, ptr %18, align 8, !tbaa !54
  %20 = call i64 @strlen(ptr noundef %19) #16
  %21 = call ptr @hi_sdscatrepr(ptr noundef %13, ptr noundef %16, i64 noundef %20)
  store ptr %21, ptr %4, align 8, !tbaa !5
  br label %107

22:                                               ; preds = %1
  %23 = load ptr, ptr %4, align 8, !tbaa !5
  %24 = load ptr, ptr %2, align 8, !tbaa !46
  %25 = getelementptr inbounds nuw %struct.redisReply, ptr %24, i32 0, i32 4
  %26 = load ptr, ptr %25, align 8, !tbaa !54
  %27 = load ptr, ptr %2, align 8, !tbaa !46
  %28 = getelementptr inbounds nuw %struct.redisReply, ptr %27, i32 0, i32 3
  %29 = load i64, ptr %28, align 8, !tbaa !76
  %30 = call ptr @hi_sdscatrepr(ptr noundef %23, ptr noundef %26, i64 noundef %29)
  store ptr %30, ptr %4, align 8, !tbaa !5
  br label %107

31:                                               ; preds = %1
  %32 = load ptr, ptr %4, align 8, !tbaa !5
  %33 = load ptr, ptr %2, align 8, !tbaa !46
  %34 = getelementptr inbounds nuw %struct.redisReply, ptr %33, i32 0, i32 1
  %35 = load i64, ptr %34, align 8, !tbaa !191
  %36 = call ptr (ptr, ptr, ...) @hi_sdscatprintf(ptr noundef %32, ptr noundef @.str.157, i64 noundef %35)
  store ptr %36, ptr %4, align 8, !tbaa !5
  br label %107

37:                                               ; preds = %1
  %38 = load ptr, ptr %4, align 8, !tbaa !5
  %39 = load ptr, ptr %2, align 8, !tbaa !46
  %40 = getelementptr inbounds nuw %struct.redisReply, ptr %39, i32 0, i32 4
  %41 = load ptr, ptr %40, align 8, !tbaa !54
  %42 = call ptr (ptr, ptr, ...) @hi_sdscatprintf(ptr noundef %38, ptr noundef @.str.242, ptr noundef %41)
  store ptr %42, ptr %4, align 8, !tbaa !5
  br label %107

43:                                               ; preds = %1, %1
  %44 = load ptr, ptr %4, align 8, !tbaa !5
  %45 = load ptr, ptr %2, align 8, !tbaa !46
  %46 = getelementptr inbounds nuw %struct.redisReply, ptr %45, i32 0, i32 4
  %47 = load ptr, ptr %46, align 8, !tbaa !54
  %48 = load ptr, ptr %2, align 8, !tbaa !46
  %49 = getelementptr inbounds nuw %struct.redisReply, ptr %48, i32 0, i32 3
  %50 = load i64, ptr %49, align 8, !tbaa !76
  %51 = call ptr @hi_sdscatrepr(ptr noundef %44, ptr noundef %47, i64 noundef %50)
  store ptr %51, ptr %4, align 8, !tbaa !5
  br label %107

52:                                               ; preds = %1
  %53 = load ptr, ptr %4, align 8, !tbaa !5
  %54 = call ptr @hi_sdscat(ptr noundef %53, ptr noundef @.str.621)
  store ptr %54, ptr %4, align 8, !tbaa !5
  br label %107

55:                                               ; preds = %1
  %56 = load ptr, ptr %4, align 8, !tbaa !5
  %57 = load ptr, ptr %2, align 8, !tbaa !46
  %58 = getelementptr inbounds nuw %struct.redisReply, ptr %57, i32 0, i32 1
  %59 = load i64, ptr %58, align 8, !tbaa !191
  %60 = icmp ne i64 %59, 0
  %61 = select i1 %60, ptr @.str.622, ptr @.str.623
  %62 = call ptr @hi_sdscat(ptr noundef %56, ptr noundef %61)
  store ptr %62, ptr %4, align 8, !tbaa !5
  br label %107

63:                                               ; preds = %1, %1, %1, %1
  store i32 0, ptr %3, align 4, !tbaa !10
  br label %64

64:                                               ; preds = %97, %63
  %65 = load i32, ptr %3, align 4, !tbaa !10
  %66 = zext i32 %65 to i64
  %67 = load ptr, ptr %2, align 8, !tbaa !46
  %68 = getelementptr inbounds nuw %struct.redisReply, ptr %67, i32 0, i32 6
  %69 = load i64, ptr %68, align 8, !tbaa !48
  %70 = icmp ult i64 %66, %69
  br i1 %70, label %71, label %100

71:                                               ; preds = %64
  call void @llvm.lifetime.start.p0(i64 8, ptr %5) #15
  %72 = load ptr, ptr %2, align 8, !tbaa !46
  %73 = getelementptr inbounds nuw %struct.redisReply, ptr %72, i32 0, i32 7
  %74 = load ptr, ptr %73, align 8, !tbaa !53
  %75 = load i32, ptr %3, align 4, !tbaa !10
  %76 = zext i32 %75 to i64
  %77 = getelementptr inbounds nuw ptr, ptr %74, i64 %76
  %78 = load ptr, ptr %77, align 8, !tbaa !46
  %79 = call ptr @cliFormatReplyCSV(ptr noundef %78)
  store ptr %79, ptr %5, align 8, !tbaa !5
  %80 = load ptr, ptr %4, align 8, !tbaa !5
  %81 = load ptr, ptr %5, align 8, !tbaa !5
  %82 = load ptr, ptr %5, align 8, !tbaa !5
  %83 = call i64 @hi_sdslen(ptr noundef %82)
  %84 = call ptr @hi_sdscatlen(ptr noundef %80, ptr noundef %81, i64 noundef %83)
  store ptr %84, ptr %4, align 8, !tbaa !5
  %85 = load i32, ptr %3, align 4, !tbaa !10
  %86 = zext i32 %85 to i64
  %87 = load ptr, ptr %2, align 8, !tbaa !46
  %88 = getelementptr inbounds nuw %struct.redisReply, ptr %87, i32 0, i32 6
  %89 = load i64, ptr %88, align 8, !tbaa !48
  %90 = sub i64 %89, 1
  %91 = icmp ne i64 %86, %90
  br i1 %91, label %92, label %95

92:                                               ; preds = %71
  %93 = load ptr, ptr %4, align 8, !tbaa !5
  %94 = call ptr @hi_sdscat(ptr noundef %93, ptr noundef @.str.225)
  store ptr %94, ptr %4, align 8, !tbaa !5
  br label %95

95:                                               ; preds = %92, %71
  %96 = load ptr, ptr %5, align 8, !tbaa !5
  call void @hi_sdsfree(ptr noundef %96)
  call void @llvm.lifetime.end.p0(i64 8, ptr %5) #15
  br label %97

97:                                               ; preds = %95
  %98 = load i32, ptr %3, align 4, !tbaa !10
  %99 = add i32 %98, 1
  store i32 %99, ptr %3, align 4, !tbaa !10
  br label %64, !llvm.loop !556

100:                                              ; preds = %64
  br label %107

101:                                              ; preds = %1
  %102 = load ptr, ptr @stderr, align 8, !tbaa !12
  %103 = load ptr, ptr %2, align 8, !tbaa !46
  %104 = getelementptr inbounds nuw %struct.redisReply, ptr %103, i32 0, i32 0
  %105 = load i32, ptr %104, align 8, !tbaa !68
  %106 = call i32 (ptr, ptr, ...) @fprintf(ptr noundef %102, ptr noundef @.str.431, i32 noundef %105) #15
  call void @exit(i32 noundef 1) #20
  unreachable

107:                                              ; preds = %100, %55, %52, %43, %37, %31, %22, %10
  %108 = load ptr, ptr %4, align 8, !tbaa !5
  call void @llvm.lifetime.end.p0(i64 8, ptr %4) #15
  call void @llvm.lifetime.end.p0(i64 4, ptr %3) #15
  ret ptr %108
}