; Function Attrs: nounwind uwtable
define internal fastcc ptr @cliFormatReplyCSV(ptr noundef readonly captures(none) %0) unnamed_addr #0 {
  %2 = tail call ptr @hi_sdsempty() #33
  %3 = load i32, ptr %0, align 8, !tbaa !56
  switch i32 %3, label %79 [
    i32 6, label %4
    i32 5, label %10
    i32 3, label %16
    i32 7, label %20
    i32 1, label %24
    i32 14, label %24
    i32 4, label %30
    i32 8, label %32
    i32 2, label %37
    i32 10, label %37
    i32 12, label %37
    i32 9, label %37
  ]

4:                                                ; preds = %1
  %5 = tail call ptr @hi_sdscat(ptr noundef %2, ptr noundef nonnull @.str.620) #33
  %6 = getelementptr inbounds nuw i8, ptr %0, i64 32
  %7 = load ptr, ptr %6, align 8, !tbaa !36
  %8 = tail call i64 @strlen(ptr noundef nonnull dereferenceable(1) %7) #35
  %9 = tail call ptr @hi_sdscatrepr(ptr noundef %5, ptr noundef nonnull %7, i64 noundef %8) #33
  br label %.loopexit

10:                                               ; preds = %1
  %11 = getelementptr inbounds nuw i8, ptr %0, i64 32
  %12 = load ptr, ptr %11, align 8, !tbaa !36
  %13 = getelementptr inbounds nuw i8, ptr %0, i64 24
  %14 = load i64, ptr %13, align 8, !tbaa !64
  %15 = tail call ptr @hi_sdscatrepr(ptr noundef %2, ptr noundef %12, i64 noundef %14) #33
  br label %.loopexit

16:                                               ; preds = %1
  %17 = getelementptr inbounds nuw i8, ptr %0, i64 8
  %18 = load i64, ptr %17, align 8, !tbaa !167
  %19 = tail call ptr (ptr, ptr, ...) @hi_sdscatprintf(ptr noundef %2, ptr noundef nonnull @.str.157, i64 noundef %18) #33
  br label %.loopexit

20:                                               ; preds = %1
  %21 = getelementptr inbounds nuw i8, ptr %0, i64 32
  %22 = load ptr, ptr %21, align 8, !tbaa !36
  %23 = tail call ptr (ptr, ptr, ...) @hi_sdscatprintf(ptr noundef %2, ptr noundef nonnull @.str.242, ptr noundef %22) #33
  br label %.loopexit

24:                                               ; preds = %1, %1
  %25 = getelementptr inbounds nuw i8, ptr %0, i64 32
  %26 = load ptr, ptr %25, align 8, !tbaa !36
  %27 = getelementptr inbounds nuw i8, ptr %0, i64 24
  %28 = load i64, ptr %27, align 8, !tbaa !64
  %29 = tail call ptr @hi_sdscatrepr(ptr noundef %2, ptr noundef %26, i64 noundef %28) #33
  br label %.loopexit

30:                                               ; preds = %1
  %31 = tail call ptr @hi_sdscat(ptr noundef %2, ptr noundef nonnull @.str.621) #33
  br label %.loopexit

32:                                               ; preds = %1
  %33 = getelementptr inbounds nuw i8, ptr %0, i64 8
  %34 = load i64, ptr %33, align 8, !tbaa !167
  %.not33 = icmp eq i64 %34, 0
  %35 = select i1 %.not33, ptr @.str.623, ptr @.str.622
  %36 = tail call ptr @hi_sdscat(ptr noundef %2, ptr noundef nonnull %35) #33
  br label %.loopexit

37:                                               ; preds = %1, %1, %1, %1
  %38 = getelementptr inbounds nuw i8, ptr %0, i64 48
  %39 = load i64, ptr %38, align 8, !tbaa !28
  %.not36 = icmp eq i64 %39, 0
  br i1 %.not36, label %.loopexit, label %.lr.ph

.lr.ph:                                           ; preds = %37
  %40 = getelementptr inbounds nuw i8, ptr %0, i64 56
  br label %41

41:                                               ; preds = %.lr.ph, %74
  %42 = phi i64 [ 0, %.lr.ph ], [ %76, %74 ]
  %.035 = phi i32 [ 0, %.lr.ph ], [ %75, %74 ]
  %.134 = phi ptr [ %2, %.lr.ph ], [ %.2, %74 ]
  %43 = load ptr, ptr %40, align 8, !tbaa !33
  %44 = getelementptr inbounds nuw ptr, ptr %43, i64 %42
  %45 = load ptr, ptr %44, align 8, !tbaa !34
  %46 = tail call fastcc ptr @cliFormatReplyCSV(ptr noundef %45)
  %47 = getelementptr inbounds i8, ptr %46, i64 -1
  %48 = load i8, ptr %47, align 1, !tbaa !67
  %49 = zext i8 %48 to i32
  %50 = and i32 %49, 7
  switch i32 %50, label %hi_sdslen.exit [
    i32 0, label %51
    i32 1, label %54
    i32 2, label %58
    i32 3, label %62
    i32 4, label %66
  ]

51:                                               ; preds = %41
  %52 = lshr i32 %49, 3
  %53 = zext nneg i32 %52 to i64
  br label %hi_sdslen.exit

54:                                               ; preds = %41
  %55 = getelementptr inbounds i8, ptr %46, i64 -3
  %56 = load i8, ptr %55, align 1, !tbaa !67
  %57 = zext i8 %56 to i64
  br label %hi_sdslen.exit

58:                                               ; preds = %41
  %59 = getelementptr inbounds i8, ptr %46, i64 -5
  %60 = load i16, ptr %59, align 1, !tbaa !68
  %61 = zext i16 %60 to i64
  br label %hi_sdslen.exit

62:                                               ; preds = %41
  %63 = getelementptr inbounds i8, ptr %46, i64 -9
  %64 = load i32, ptr %63, align 1, !tbaa !22
  %65 = zext i32 %64 to i64
  br label %hi_sdslen.exit

66:                                               ; preds = %41
  %67 = getelementptr inbounds i8, ptr %46, i64 -17
  %68 = load i64, ptr %67, align 1, !tbaa !20
  br label %hi_sdslen.exit

hi_sdslen.exit:                                   ; preds = %41, %51, %54, %58, %62, %66
  %.0.i = phi i64 [ %68, %66 ], [ %65, %62 ], [ %61, %58 ], [ %57, %54 ], [ %53, %51 ], [ 0, %41 ]
  %69 = tail call ptr @hi_sdscatlen(ptr noundef %.134, ptr noundef nonnull %46, i64 noundef %.0.i) #33
  %70 = load i64, ptr %38, align 8, !tbaa !28
  %71 = add i64 %70, -1
  %.not = icmp eq i64 %71, %42
  br i1 %.not, label %74, label %72

72:                                               ; preds = %hi_sdslen.exit
  %73 = tail call ptr @hi_sdscat(ptr noundef %69, ptr noundef nonnull @.str.225) #33
  br label %74

74:                                               ; preds = %72, %hi_sdslen.exit
  %.2 = phi ptr [ %73, %72 ], [ %69, %hi_sdslen.exit ]
  tail call void @hi_sdsfree(ptr noundef nonnull %46) #33
  %75 = add i32 %.035, 1
  %76 = zext i32 %75 to i64
  %77 = load i64, ptr %38, align 8, !tbaa !28
  %78 = icmp ugt i64 %77, %76
  br i1 %78, label %41, label %.loopexit, !llvm.loop !516

79:                                               ; preds = %1
  %80 = load ptr, ptr @stderr, align 8, !tbaa !5
  %81 = tail call i32 (ptr, ptr, ...) @fprintf(ptr noundef %80, ptr noundef nonnull @.str.431, i32 noundef %3) #39
  tail call void @exit(i32 noundef 1) #40
  unreachable

.loopexit:                                        ; preds = %74, %37, %32, %30, %24, %20, %16, %10, %4
  %.031 = phi ptr [ %36, %32 ], [ %31, %30 ], [ %29, %24 ], [ %23, %20 ], [ %19, %16 ], [ %15, %10 ], [ %9, %4 ], [ %2, %37 ], [ %.2, %74 ]
  ret ptr %.031
}